; Function Attrs: mustprogress nounwind uwtable
define dso_local { ptr, i64 } @_ZN4node22EmitToJSStreamListener13OnStreamAllocEm(ptr nocapture noundef nonnull readonly align 8 dereferenceable(24) %this, i64 noundef %suggested_size) unnamed_addr #3 align 2 {
entry:
  %stream_ = getelementptr inbounds i8, ptr %this, i64 8
  %0 = load ptr, ptr %stream_, align 8
  %cmp.not = icmp eq ptr %0, null
  br i1 %cmp.not, label %do.body4, label %do.end5

do.body4:                                         ; preds = %entry
  tail call void @_ZN4node6AssertERKNS_13AssertionInfoE(ptr noundef nonnull align 8 dereferenceable(24) @_ZZN4node22EmitToJSStreamListener13OnStreamAllocEmE4args) #20
  tail call void @abort() #21
  unreachable

do.end5:                                          ; preds = %entry
  %env_.i = getelementptr inbounds i8, ptr %0, i64 32
  %1 = load ptr, ptr %env_.i, align 8
  %call7 = tail call { ptr, i64 } @_ZN4node11Environment23allocate_managed_bufferEm(ptr noundef nonnull align 8 dereferenceable(2872) %1, i64 noundef %suggested_size) #20
  ret { ptr, i64 } %call7
}